target datalayout = "e-m:e-p270:32:32-p271:32:32-p272:64:64-i64:64-i128:128-f80:128-n8:16:32:64-S128"
target triple = "x86_64-pc-linux-gnu"

%struct.AVFilterContext = type { ptr, ptr, ptr, ptr, ptr, i32, ptr, ptr, i32, ptr, ptr, i32, i32, ptr, ptr, ptr, ptr, i32, ptr, i32, i32 }
%struct.MetadataContext = type { ptr, i32, ptr, ptr, i32, ptr, ptr, [4 x double], ptr, ptr, ptr, ptr, i32 }
%struct.AVIOContext = type { ptr, ptr, i32, ptr, ptr, ptr, ptr, ptr, ptr, i64, i32, i32, i32, i32, i32, i64, ptr, ptr, ptr, ptr, i32, i32, ptr, ptr, ptr, i32, ptr, i64, i64 }

@.str.8 = private unnamed_addr constant [30 x i8] c"Assertion %s failed at %s:%d\0A\00", align 1
@.str.9 = private unnamed_addr constant [2 x i8] c"0\00", align 1
@.str.10 = private unnamed_addr constant [25 x i8] c"libavfilter/f_metadata.c\00", align 1
@.str.45 = private unnamed_addr constant [26 x i8] c"Metadata key must be set\0A\00", align 1
@.str.46 = private unnamed_addr constant [24 x i8] c"Missing metadata value\0A\00", align 1
@.str.47 = private unnamed_addr constant [21 x i8] c"expr option not set\0A\00", align 1
@var_names = internal constant [5 x ptr] [ptr @.str.54, ptr @.str.55, ptr @.str.56, ptr @.str.57, ptr null], align 16
@.str.48 = private unnamed_addr constant [37 x i8] c"Error while parsing expression '%s'\0A\00", align 1
@.str.49 = private unnamed_addr constant [2 x i8] c"-\00", align 1
@.str.50 = private unnamed_addr constant [7 x i8] c"pipe:1\00", align 1
@.str.51 = private unnamed_addr constant [23 x i8] c"Could not open %s: %s\0A\00", align 1

; Function Attrs: inlinehint nounwind uwtable
define internal ptr @av_make_error_string(ptr noundef %0, i64 noundef %1, i32 noundef %2) #3 {
  %4 = alloca ptr, align 8
  %5 = alloca i64, align 8
  %6 = alloca i32, align 4
  store ptr %0, ptr %4, align 8, !tbaa !74
  store i64 %1, ptr %5, align 8, !tbaa !75
  store i32 %2, ptr %6, align 4, !tbaa !33
  %7 = load i32, ptr %6, align 4, !tbaa !33
  %8 = load ptr, ptr %4, align 8, !tbaa !74
  %9 = load i64, ptr %5, align 8, !tbaa !75
  %10 = call i32 @av_strerror(i32 noundef %7, ptr noundef %8, i64 noundef %9)
  %11 = load ptr, ptr %4, align 8, !tbaa !74
  ret ptr %11
}

; Function Attrs: cold nounwind optsize uwtable
define internal i32 @init(ptr noundef %0) #0 {
  %2 = alloca i32, align 4
  %3 = alloca ptr, align 8
  %4 = alloca ptr, align 8
  %5 = alloca i32, align 4
  %6 = alloca i32, align 4
  %7 = alloca [64 x i8], align 1
  store ptr %0, ptr %3, align 8, !tbaa !4
  call void @llvm.lifetime.start.p0(i64 8, ptr %4) #11
  %8 = load ptr, ptr %3, align 8, !tbaa !4
  %9 = getelementptr inbounds nuw %struct.AVFilterContext, ptr %8, i32 0, i32 9
  %10 = load ptr, ptr %9, align 8, !tbaa !9
  store ptr %10, ptr %4, align 8, !tbaa !22
  call void @llvm.lifetime.start.p0(i64 4, ptr %5) #11
  %11 = load ptr, ptr %4, align 8, !tbaa !22
  %12 = getelementptr inbounds nuw %struct.MetadataContext, ptr %11, i32 0, i32 2
  %13 = load ptr, ptr %12, align 8, !tbaa !24
  %14 = icmp ne ptr %13, null
  br i1 %14, label %27, label %15

15:                                               ; preds = %1
  %16 = load ptr, ptr %4, align 8, !tbaa !22
  %17 = getelementptr inbounds nuw %struct.MetadataContext, ptr %16, i32 0, i32 1
  %18 = load i32, ptr %17, align 8, !tbaa !28
  %19 = icmp ne i32 %18, 4
  br i1 %19, label %20, label %27

20:                                               ; preds = %15
  %21 = load ptr, ptr %4, align 8, !tbaa !22
  %22 = getelementptr inbounds nuw %struct.MetadataContext, ptr %21, i32 0, i32 1
  %23 = load i32, ptr %22, align 8, !tbaa !28
  %24 = icmp ne i32 %23, 3
  br i1 %24, label %25, label %27

25:                                               ; preds = %20
  %26 = load ptr, ptr %3, align 8, !tbaa !4
  call void (ptr, i32, ptr, ...) @av_log(ptr noundef %26, i32 noundef 24, ptr noundef @.str.45)
  store i32 -22, ptr %2, align 4
  store i32 1, ptr %6, align 4
  br label %165

27:                                               ; preds = %20, %15, %1
  %28 = load ptr, ptr %4, align 8, !tbaa !22
  %29 = getelementptr inbounds nuw %struct.MetadataContext, ptr %28, i32 0, i32 1
  %30 = load i32, ptr %29, align 8, !tbaa !28
  %31 = icmp eq i32 %30, 2
  br i1 %31, label %37, label %32

32:                                               ; preds = %27
  %33 = load ptr, ptr %4, align 8, !tbaa !22
  %34 = getelementptr inbounds nuw %struct.MetadataContext, ptr %33, i32 0, i32 1
  %35 = load i32, ptr %34, align 8, !tbaa !28
  %36 = icmp eq i32 %35, 1
  br i1 %36, label %37, label %44

37:                                               ; preds = %32, %27
  %38 = load ptr, ptr %4, align 8, !tbaa !22
  %39 = getelementptr inbounds nuw %struct.MetadataContext, ptr %38, i32 0, i32 3
  %40 = load ptr, ptr %39, align 8, !tbaa !29
  %41 = icmp ne ptr %40, null
  br i1 %41, label %44, label %42

42:                                               ; preds = %37
  %43 = load ptr, ptr %3, align 8, !tbaa !4
  call void (ptr, i32, ptr, ...) @av_log(ptr noundef %43, i32 noundef 24, ptr noundef @.str.46)
  store i32 -22, ptr %2, align 4
  store i32 1, ptr %6, align 4
  br label %165

44:                                               ; preds = %37, %32
  %45 = load ptr, ptr %4, align 8, !tbaa !22
  %46 = getelementptr inbounds nuw %struct.MetadataContext, ptr %45, i32 0, i32 4
  %47 = load i32, ptr %46, align 8, !tbaa !30
  switch i32 %47, label %69 [
    i32 0, label %48
    i32 1, label %51
    i32 6, label %54
    i32 2, label %57
    i32 3, label %60
    i32 4, label %63
    i32 5, label %66
  ]

48:                                               ; preds = %44
  %49 = load ptr, ptr %4, align 8, !tbaa !22
  %50 = getelementptr inbounds nuw %struct.MetadataContext, ptr %49, i32 0, i32 10
  store ptr @same_str, ptr %50, align 8, !tbaa !31
  br label %73

51:                                               ; preds = %44
  %52 = load ptr, ptr %4, align 8, !tbaa !22
  %53 = getelementptr inbounds nuw %struct.MetadataContext, ptr %52, i32 0, i32 10
  store ptr @starts_with, ptr %53, align 8, !tbaa !31
  br label %73

54:                                               ; preds = %44
  %55 = load ptr, ptr %4, align 8, !tbaa !22
  %56 = getelementptr inbounds nuw %struct.MetadataContext, ptr %55, i32 0, i32 10
  store ptr @ends_with, ptr %56, align 8, !tbaa !31
  br label %73

57:                                               ; preds = %44
  %58 = load ptr, ptr %4, align 8, !tbaa !22
  %59 = getelementptr inbounds nuw %struct.MetadataContext, ptr %58, i32 0, i32 10
  store ptr @less, ptr %59, align 8, !tbaa !31
  br label %73

60:                                               ; preds = %44
  %61 = load ptr, ptr %4, align 8, !tbaa !22
  %62 = getelementptr inbounds nuw %struct.MetadataContext, ptr %61, i32 0, i32 10
  store ptr @equal, ptr %62, align 8, !tbaa !31
  br label %73

63:                                               ; preds = %44
  %64 = load ptr, ptr %4, align 8, !tbaa !22
  %65 = getelementptr inbounds nuw %struct.MetadataContext, ptr %64, i32 0, i32 10
  store ptr @greater, ptr %65, align 8, !tbaa !31
  br label %73

66:                                               ; preds = %44
  %67 = load ptr, ptr %4, align 8, !tbaa !22
  %68 = getelementptr inbounds nuw %struct.MetadataContext, ptr %67, i32 0, i32 10
  store ptr @parse_expr, ptr %68, align 8, !tbaa !31
  br label %73

69:                                               ; preds = %44
  br label %70

70:                                               ; preds = %69
  call void (ptr, i32, ptr, ...) @av_log(ptr noundef null, i32 noundef 0, ptr noundef @.str.8, ptr noundef @.str.9, ptr noundef @.str.10, i32 noundef 249)
  call void @abort() #12
  unreachable

71:                                               ; No predecessors!
  br label %72

72:                                               ; preds = %71
  br label %73

73:                                               ; preds = %72, %66, %63, %60, %57, %54, %51, %48
  %74 = load ptr, ptr %4, align 8, !tbaa !22
  %75 = getelementptr inbounds nuw %struct.MetadataContext, ptr %74, i32 0, i32 4
  %76 = load i32, ptr %75, align 8, !tbaa !30
  %77 = icmp eq i32 %76, 5
  br i1 %77, label %78, label %101

78:                                               ; preds = %73
  %79 = load ptr, ptr %4, align 8, !tbaa !22
  %80 = getelementptr inbounds nuw %struct.MetadataContext, ptr %79, i32 0, i32 5
  %81 = load ptr, ptr %80, align 8, !tbaa !32
  %82 = icmp ne ptr %81, null
  br i1 %82, label %85, label %83

83:                                               ; preds = %78
  %84 = load ptr, ptr %3, align 8, !tbaa !4
  call void (ptr, i32, ptr, ...) @av_log(ptr noundef %84, i32 noundef 24, ptr noundef @.str.47)
  store i32 -22, ptr %2, align 4
  store i32 1, ptr %6, align 4
  br label %165

85:                                               ; preds = %78
  %86 = load ptr, ptr %4, align 8, !tbaa !22
  %87 = getelementptr inbounds nuw %struct.MetadataContext, ptr %86, i32 0, i32 6
  %88 = load ptr, ptr %4, align 8, !tbaa !22
  %89 = getelementptr inbounds nuw %struct.MetadataContext, ptr %88, i32 0, i32 5
  %90 = load ptr, ptr %89, align 8, !tbaa !32
  %91 = load ptr, ptr %3, align 8, !tbaa !4
  %92 = call i32 @av_expr_parse(ptr noundef %87, ptr noundef %90, ptr noundef @var_names, ptr noundef null, ptr noundef null, ptr noundef null, ptr noundef null, i32 noundef 0, ptr noundef %91)
  store i32 %92, ptr %5, align 4, !tbaa !33
  %93 = icmp slt i32 %92, 0
  br i1 %93, label %94, label %100

94:                                               ; preds = %85
  %95 = load ptr, ptr %3, align 8, !tbaa !4
  %96 = load ptr, ptr %4, align 8, !tbaa !22
  %97 = getelementptr inbounds nuw %struct.MetadataContext, ptr %96, i32 0, i32 5
  %98 = load ptr, ptr %97, align 8, !tbaa !32
  call void (ptr, i32, ptr, ...) @av_log(ptr noundef %95, i32 noundef 16, ptr noundef @.str.48, ptr noundef %98)
  %99 = load i32, ptr %5, align 4, !tbaa !33
  store i32 %99, ptr %2, align 4
  store i32 1, ptr %6, align 4
  br label %165

100:                                              ; preds = %85
  br label %101

101:                                              ; preds = %100, %73
  %102 = load ptr, ptr %4, align 8, !tbaa !22
  %103 = getelementptr inbounds nuw %struct.MetadataContext, ptr %102, i32 0, i32 1
  %104 = load i32, ptr %103, align 8, !tbaa !28
  %105 = icmp eq i32 %104, 4
  br i1 %105, label %106, label %114

106:                                              ; preds = %101
  %107 = load ptr, ptr %4, align 8, !tbaa !22
  %108 = getelementptr inbounds nuw %struct.MetadataContext, ptr %107, i32 0, i32 9
  %109 = load ptr, ptr %108, align 8, !tbaa !34
  %110 = icmp ne ptr %109, null
  br i1 %110, label %111, label %114

111:                                              ; preds = %106
  %112 = load ptr, ptr %4, align 8, !tbaa !22
  %113 = getelementptr inbounds nuw %struct.MetadataContext, ptr %112, i32 0, i32 11
  store ptr @print_file, ptr %113, align 8, !tbaa !35
  br label %117

114:                                              ; preds = %106, %101
  %115 = load ptr, ptr %4, align 8, !tbaa !22
  %116 = getelementptr inbounds nuw %struct.MetadataContext, ptr %115, i32 0, i32 11
  store ptr @print_log, ptr %116, align 8, !tbaa !35
  br label %117

117:                                              ; preds = %114, %111
  %118 = load ptr, ptr %4, align 8, !tbaa !22
  %119 = getelementptr inbounds nuw %struct.MetadataContext, ptr %118, i32 0, i32 8
  store ptr null, ptr %119, align 8, !tbaa !36
  %120 = load ptr, ptr %4, align 8, !tbaa !22
  %121 = getelementptr inbounds nuw %struct.MetadataContext, ptr %120, i32 0, i32 9
  %122 = load ptr, ptr %121, align 8, !tbaa !34
  %123 = icmp ne ptr %122, null
  br i1 %123, label %124, label %164

124:                                              ; preds = %117
  %125 = load ptr, ptr %4, align 8, !tbaa !22
  %126 = getelementptr inbounds nuw %struct.MetadataContext, ptr %125, i32 0, i32 9
  %127 = load ptr, ptr %126, align 8, !tbaa !34
  %128 = call i32 @strcmp(ptr noundef @.str.49, ptr noundef %127) #13
  %129 = icmp ne i32 %128, 0
  br i1 %129, label %134, label %130

130:                                              ; preds = %124
  %131 = load ptr, ptr %4, align 8, !tbaa !22
  %132 = getelementptr inbounds nuw %struct.MetadataContext, ptr %131, i32 0, i32 8
  %133 = call i32 @avio_open(ptr noundef %132, ptr noundef @.str.50, i32 noundef 2)
  store i32 %133, ptr %5, align 4, !tbaa !33
  br label %141

134:                                              ; preds = %124
  %135 = load ptr, ptr %4, align 8, !tbaa !22
  %136 = getelementptr inbounds nuw %struct.MetadataContext, ptr %135, i32 0, i32 8
  %137 = load ptr, ptr %4, align 8, !tbaa !22
  %138 = getelementptr inbounds nuw %struct.MetadataContext, ptr %137, i32 0, i32 9
  %139 = load ptr, ptr %138, align 8, !tbaa !34
  %140 = call i32 @avio_open(ptr noundef %136, ptr noundef %139, i32 noundef 2)
  store i32 %140, ptr %5, align 4, !tbaa !33
  br label %141

141:                                              ; preds = %134, %130
  %142 = load i32, ptr %5, align 4, !tbaa !33
  %143 = icmp slt i32 %142, 0
  br i1 %143, label %144, label %153

144:                                              ; preds = %141
  %145 = load ptr, ptr %3, align 8, !tbaa !4
  %146 = load ptr, ptr %4, align 8, !tbaa !22
  %147 = getelementptr inbounds nuw %struct.MetadataContext, ptr %146, i32 0, i32 9
  %148 = load ptr, ptr %147, align 8, !tbaa !34
  call void @llvm.memset.p0.i64(ptr align 1 %7, i8 0, i64 64, i1 false)
  %149 = getelementptr inbounds [64 x i8], ptr %7, i64 0, i64 0
  %150 = load i32, ptr %5, align 4, !tbaa !33
  %151 = call ptr @av_make_error_string(ptr noundef %149, i64 noundef 64, i32 noundef %150)
  call void (ptr, i32, ptr, ...) @av_log(ptr noundef %145, i32 noundef 16, ptr noundef @.str.51, ptr noundef %148, ptr noundef %151)
  %152 = load i32, ptr %5, align 4, !tbaa !33
  store i32 %152, ptr %2, align 4
  store i32 1, ptr %6, align 4
  br label %165

153:                                              ; preds = %141
  %154 = load ptr, ptr %4, align 8, !tbaa !22
  %155 = getelementptr inbounds nuw %struct.MetadataContext, ptr %154, i32 0, i32 12
  %156 = load i32, ptr %155, align 8, !tbaa !37
  %157 = icmp ne i32 %156, 0
  br i1 %157, label %158, label %163

158:                                              ; preds = %153
  %159 = load ptr, ptr %4, align 8, !tbaa !22
  %160 = getelementptr inbounds nuw %struct.MetadataContext, ptr %159, i32 0, i32 8
  %161 = load ptr, ptr %160, align 8, !tbaa !36
  %162 = getelementptr inbounds nuw %struct.AVIOContext, ptr %161, i32 0, i32 21
  store i32 32768, ptr %162, align 4, !tbaa !38
  br label %163

163:                                              ; preds = %158, %153
  br label %164

164:                                              ; preds = %163, %117
  store i32 0, ptr %2, align 4
  store i32 1, ptr %6, align 4
  br label %165

165:                                              ; preds = %164, %144, %94, %83, %42, %25
  call void @llvm.lifetime.end.p0(i64 4, ptr %5) #11
  call void @llvm.lifetime.end.p0(i64 8, ptr %4) #11
  %166 = load i32, ptr %2, align 4
  ret i32 %166
}