; Function Attrs: cold nounwind optsize uwtable
define internal range(i32 -2147483648, 1) i32 @init(ptr noundef %0) #0 {
  %2 = alloca [64 x i8], align 1
  %3 = getelementptr inbounds nuw i8, ptr %0, i64 72
  %4 = load ptr, ptr %3, align 8, !tbaa !4
  %5 = getelementptr inbounds nuw i8, ptr %4, i64 16
  %6 = load ptr, ptr %5, align 8, !tbaa !20
  %.not = icmp ne ptr %6, null
  %7 = getelementptr inbounds nuw i8, ptr %4, i64 8
  %8 = load i32, ptr %7, align 8, !tbaa !24
  %.off = add i32 %8, -3
  %switch = icmp ult i32 %.off, 2
  %or.cond = select i1 %.not, i1 true, i1 %switch
  br i1 %or.cond, label %._crit_edge, label %9

9:                                                ; preds = %1
  tail call void (ptr, i32, ptr, ...) @av_log(ptr noundef nonnull %0, i32 noundef 24, ptr noundef nonnull @.str.45) #14
  br label %71

._crit_edge:                                      ; preds = %1
  %10 = getelementptr inbounds nuw i8, ptr %4, i64 8
  %.off57 = add i32 %8, -1
  %switch58 = icmp ult i32 %.off57, 2
  br i1 %switch58, label %11, label %15

11:                                               ; preds = %._crit_edge
  %12 = getelementptr inbounds nuw i8, ptr %4, i64 24
  %13 = load ptr, ptr %12, align 8, !tbaa !25
  %.not51 = icmp eq ptr %13, null
  br i1 %.not51, label %14, label %15

14:                                               ; preds = %11
  tail call void (ptr, i32, ptr, ...) @av_log(ptr noundef nonnull %0, i32 noundef 24, ptr noundef nonnull @.str.46) #14
  br label %71

15:                                               ; preds = %._crit_edge, %11
  %16 = getelementptr inbounds nuw i8, ptr %4, i64 32
  %17 = load i32, ptr %16, align 8, !tbaa !26
  switch i32 %17, label %30 [
    i32 0, label %18
    i32 1, label %20
    i32 6, label %22
    i32 2, label %24
    i32 3, label %26
    i32 4, label %28
    i32 5, label %31
  ]

18:                                               ; preds = %15
  %19 = getelementptr inbounds nuw i8, ptr %4, i64 104
  store ptr @same_str, ptr %19, align 8, !tbaa !27
  br label %.thread

20:                                               ; preds = %15
  %21 = getelementptr inbounds nuw i8, ptr %4, i64 104
  store ptr @starts_with, ptr %21, align 8, !tbaa !27
  br label %.thread

22:                                               ; preds = %15
  %23 = getelementptr inbounds nuw i8, ptr %4, i64 104
  store ptr @ends_with, ptr %23, align 8, !tbaa !27
  br label %.thread

24:                                               ; preds = %15
  %25 = getelementptr inbounds nuw i8, ptr %4, i64 104
  store ptr @less, ptr %25, align 8, !tbaa !27
  br label %.thread

26:                                               ; preds = %15
  %27 = getelementptr inbounds nuw i8, ptr %4, i64 104
  store ptr @equal, ptr %27, align 8, !tbaa !27
  br label %.thread

28:                                               ; preds = %15
  %29 = getelementptr inbounds nuw i8, ptr %4, i64 104
  store ptr @greater, ptr %29, align 8, !tbaa !27
  br label %.thread

30:                                               ; preds = %15
  tail call void (ptr, i32, ptr, ...) @av_log(ptr noundef null, i32 noundef 0, ptr noundef nonnull @.str.8, ptr noundef nonnull @.str.9, ptr noundef nonnull @.str.10, i32 noundef 249) #14
  tail call void @abort() #15
  unreachable

31:                                               ; preds = %15
  %32 = getelementptr inbounds nuw i8, ptr %4, i64 104
  store ptr @parse_expr, ptr %32, align 8, !tbaa !27
  %33 = getelementptr inbounds nuw i8, ptr %4, i64 40
  %34 = load ptr, ptr %33, align 8, !tbaa !28
  %.not52 = icmp eq ptr %34, null
  br i1 %.not52, label %35, label %36

35:                                               ; preds = %31
  tail call void (ptr, i32, ptr, ...) @av_log(ptr noundef nonnull %0, i32 noundef 24, ptr noundef nonnull @.str.47) #14
  br label %71

36:                                               ; preds = %31
  %37 = getelementptr inbounds nuw i8, ptr %4, i64 48
  %38 = tail call i32 @av_expr_parse(ptr noundef nonnull %37, ptr noundef nonnull %34, ptr noundef nonnull @var_names, ptr noundef null, ptr noundef null, ptr noundef null, ptr noundef null, i32 noundef 0, ptr noundef nonnull %0) #14
  %39 = icmp slt i32 %38, 0
  br i1 %39, label %40, label %..thread_crit_edge

..thread_crit_edge:                               ; preds = %36
  %.pre60 = load i32, ptr %10, align 8, !tbaa !24
  br label %.thread

40:                                               ; preds = %36
  %41 = load ptr, ptr %33, align 8, !tbaa !28
  tail call void (ptr, i32, ptr, ...) @av_log(ptr noundef nonnull %0, i32 noundef 16, ptr noundef nonnull @.str.48, ptr noundef %41) #14
  br label %71

.thread:                                          ; preds = %..thread_crit_edge, %18, %20, %22, %24, %26, %28
  %42 = phi i32 [ %.pre60, %..thread_crit_edge ], [ %8, %18 ], [ %8, %20 ], [ %8, %22 ], [ %8, %24 ], [ %8, %26 ], [ %8, %28 ]
  %43 = icmp eq i32 %42, 4
  %44 = getelementptr inbounds nuw i8, ptr %4, i64 96
  %45 = load ptr, ptr %44, align 8, !tbaa !29
  %46 = getelementptr inbounds nuw i8, ptr %4, i64 88
  br i1 %43, label %47, label %49

47:                                               ; preds = %.thread
  %.not53 = icmp eq ptr %45, null
  %48 = getelementptr inbounds nuw i8, ptr %4, i64 112
  br i1 %.not53, label %.thread66, label %.thread64

.thread66:                                        ; preds = %47
  store ptr @print_log, ptr %48, align 8, !tbaa !30
  store ptr null, ptr %46, align 8, !tbaa !31
  br label %71

.thread64:                                        ; preds = %47
  store ptr @print_file, ptr %48, align 8, !tbaa !30
  store ptr null, ptr %46, align 8, !tbaa !31
  br label %sub_0

49:                                               ; preds = %.thread
  %50 = getelementptr inbounds nuw i8, ptr %4, i64 112
  store ptr @print_log, ptr %50, align 8, !tbaa !30
  store ptr null, ptr %46, align 8, !tbaa !31
  %.not54 = icmp eq ptr %45, null
  br i1 %.not54, label %71, label %sub_0

sub_0:                                            ; preds = %.thread64, %49
  %51 = getelementptr inbounds nuw i8, ptr %4, i64 96
  %52 = load i8, ptr %45, align 1
  %53 = zext i8 %52 to i32
  %54 = sub nsw i32 45, %53
  %.not59 = icmp eq i8 %52, 45
  br i1 %.not59, label %sub_1, label %.tail

sub_1:                                            ; preds = %sub_0
  %55 = getelementptr inbounds nuw i8, ptr %45, i64 1
  %56 = load i8, ptr %55, align 1
  %57 = zext i8 %56 to i32
  %58 = sub nsw i32 0, %57
  br label %.tail

.tail:                                            ; preds = %sub_0, %sub_1
  %59 = phi i32 [ %54, %sub_0 ], [ %58, %sub_1 ]
  %.not55 = icmp eq i32 %59, 0
  %.str.50. = select i1 %.not55, ptr @.str.50, ptr %45
  %60 = tail call i32 @avio_open(ptr noundef nonnull %46, ptr noundef nonnull %.str.50., i32 noundef 2) #14
  %61 = icmp slt i32 %60, 0
  br i1 %61, label %62, label %65

62:                                               ; preds = %.tail
  %63 = load ptr, ptr %51, align 8, !tbaa !29
  call void @llvm.memset.p0.i64(ptr noundef nonnull align 1 dereferenceable(64) %2, i8 0, i64 64, i1 false)
  %64 = call i32 @av_strerror(i32 noundef range(i32 -2147483648, 0) %60, ptr noundef nonnull %2, i64 noundef 64) #14
  call void (ptr, i32, ptr, ...) @av_log(ptr noundef nonnull %0, i32 noundef 16, ptr noundef nonnull @.str.51, ptr noundef %63, ptr noundef nonnull %2) #14
  br label %71

65:                                               ; preds = %.tail
  %66 = getelementptr inbounds nuw i8, ptr %4, i64 120
  %67 = load i32, ptr %66, align 8, !tbaa !32
  %.not56 = icmp eq i32 %67, 0
  br i1 %.not56, label %71, label %68

68:                                               ; preds = %65
  %69 = load ptr, ptr %46, align 8, !tbaa !31
  %70 = getelementptr inbounds nuw i8, ptr %69, i64 148
  store i32 32768, ptr %70, align 4, !tbaa !33
  br label %71

71:                                               ; preds = %.thread66, %49, %68, %65, %62, %40, %35, %14, %9
  %.043 = phi i32 [ %38, %40 ], [ %60, %62 ], [ -22, %35 ], [ -22, %14 ], [ -22, %9 ], [ 0, %65 ], [ 0, %68 ], [ 0, %49 ], [ 0, %.thread66 ]
  ret i32 %.043
}